; ModuleID = 'source-C-CXX/30/1435.c'
source_filename = "source-C-CXX/30/1435.c"
target datalayout = "e-m:e-p270:32:32-p271:32:32-p272:64:64-i64:64-f80:128-n8:16:32:64-S128"
target triple = "x86_64-pc-linux-gnu"

%struct.student = type { [100 x i8], %struct.student* }

; Function Attrs: nounwind sspstrong uwtable
define dso_local %struct.student* @creat() local_unnamed_addr #0 {
  %1 = tail call noalias align 16 dereferenceable_or_null(112) i8* @malloc(i64 112) #4
  %2 = bitcast i8* %1 to %struct.student*
  %3 = getelementptr inbounds %struct.student, %struct.student* %2, i64 0, i32 1
  store %struct.student* null, %struct.student** %3, align 8, !tbaa !5
  %4 = getelementptr inbounds %struct.student, %struct.student* %2, i64 0, i32 0, i64 0
  %5 = tail call i32 (i8*, ...) bitcast (i32 (...)* @gets to i32 (i8*, ...)*)(i8* %4) #4
  %6 = load i8, i8* %4, align 16, !tbaa !10
  %7 = icmp eq i8 %6, 101
  br i1 %7, label %10, label %14

8:                                                ; preds = %14
  %9 = bitcast i8* %16 to %struct.student*
  br label %10

10:                                               ; preds = %8, %0
  %11 = phi %struct.student* [ %2, %0 ], [ %9, %8 ]
  %12 = getelementptr inbounds %struct.student, %struct.student* %11, i64 0, i32 1
  %13 = load %struct.student*, %struct.student** %12, align 8, !tbaa !5
  ret %struct.student* %13

14:                                               ; preds = %0, %14
  %15 = phi %struct.student* [ %17, %14 ], [ %2, %0 ]
  %16 = tail call noalias align 16 dereferenceable_or_null(112) i8* @malloc(i64 112) #4
  %17 = bitcast i8* %16 to %struct.student*
  %18 = getelementptr inbounds %struct.student, %struct.student* %17, i64 0, i32 1
  store %struct.student* %15, %struct.student** %18, align 8, !tbaa !5
  %19 = getelementptr inbounds %struct.student, %struct.student* %17, i64 0, i32 0, i64 0
  %20 = tail call i32 (i8*, ...) bitcast (i32 (...)* @gets to i32 (i8*, ...)*)(i8* %19) #4
  %21 = load i8, i8* %19, align 16, !tbaa !10
  %22 = icmp eq i8 %21, 101
  br i1 %22, label %8, label %14
}

; Function Attrs: inaccessiblememonly mustprogress nofree nounwind willreturn
declare noalias noundef align 16 i8* @malloc(i64 noundef) local_unnamed_addr #1

declare i32 @gets(...) local_unnamed_addr #2

; Function Attrs: nounwind sspstrong uwtable
define dso_local i32 @main() local_unnamed_addr #0 {
  %1 = tail call noalias align 16 dereferenceable_or_null(112) i8* @malloc(i64 112) #4
  %2 = bitcast i8* %1 to %struct.student*
  %3 = getelementptr inbounds %struct.student, %struct.student* %2, i64 0, i32 1
  store %struct.student* null, %struct.student** %3, align 8, !tbaa !5
  %4 = getelementptr inbounds %struct.student, %struct.student* %2, i64 0, i32 0, i64 0
  %5 = tail call i32 (i8*, ...) bitcast (i32 (...)* @gets to i32 (i8*, ...)*)(i8* %4) #4
  %6 = load i8, i8* %4, align 16, !tbaa !10
  %7 = icmp eq i8 %6, 101
  br i1 %7, label %19, label %8

8:                                                ; preds = %0, %8
  %9 = phi %struct.student* [ %11, %8 ], [ %2, %0 ]
  %10 = tail call noalias align 16 dereferenceable_or_null(112) i8* @malloc(i64 112) #4
  %11 = bitcast i8* %10 to %struct.student*
  %12 = getelementptr inbounds %struct.student, %struct.student* %11, i64 0, i32 1
  store %struct.student* %9, %struct.student** %12, align 8, !tbaa !5
  %13 = getelementptr inbounds %struct.student, %struct.student* %11, i64 0, i32 0, i64 0
  %14 = tail call i32 (i8*, ...) bitcast (i32 (...)* @gets to i32 (i8*, ...)*)(i8* %13) #4
  %15 = load i8, i8* %13, align 16, !tbaa !10
  %16 = icmp eq i8 %15, 101
  br i1 %16, label %17, label %8

17:                                               ; preds = %8
  %18 = bitcast i8* %10 to %struct.student*
  br label %19

19:                                               ; preds = %17, %0
  %20 = phi %struct.student* [ %2, %0 ], [ %18, %17 ]
  %21 = getelementptr inbounds %struct.student, %struct.student* %20, i64 0, i32 1
  %22 = load %struct.student*, %struct.student** %21, align 8, !tbaa !5
  %23 = icmp eq %struct.student* %22, null
  br i1 %23, label %31, label %24

24:                                               ; preds = %19, %24
  %25 = phi %struct.student* [ %29, %24 ], [ %22, %19 ]
  %26 = getelementptr inbounds %struct.student, %struct.student* %25, i64 0, i32 0, i64 0
  %27 = tail call i32 @puts(i8* nonnull %26)
  %28 = getelementptr inbounds %struct.student, %struct.student* %25, i64 0, i32 1
  %29 = load %struct.student*, %struct.student** %28, align 8, !tbaa !5
  %30 = icmp eq %struct.student* %29, null
  br i1 %30, label %31, label %24, !llvm.loop !11

31:                                               ; preds = %24, %19
  ret i32 0
}

; Function Attrs: nofree nounwind
declare noundef i32 @puts(i8* nocapture noundef readonly) local_unnamed_addr #3


!llvm.module.flags = !{!0, !1, !2, !3}
!llvm.ident = !{!4}

!0 = !{i32 1, !"wchar_size", i32 4}
!1 = !{i32 7, !"PIC Level", i32 2}
!2 = !{i32 7, !"PIE Level", i32 2}
!3 = !{i32 7, !"uwtable", i32 1}
!4 = !{!"clang version 13.0.0"}
!5 = !{!6, !9, i64 104}
!6 = !{!"student", !7, i64 0, !9, i64 104}
!7 = !{!"omnipotent char", !8, i64 0}
!8 = !{!"Simple C/C++ TBAA"}
!9 = !{!"any pointer", !7, i64 0}
!10 = !{!7, !7, i64 0}
!11 = distinct !{!11, !12}
!12 = !{!"llvm.loop.mustprogress"}
